target datalayout = "e-m:e-p270:32:32-p271:32:32-p272:64:64-i64:64-i128:128-f80:128-n8:16:32:64-S128"
target triple = "x86_64-pc-linux-gnu"

%"class.Luau::TypePackRehydrationVisitor" = type { ptr, ptr, ptr }
%"class.Luau::TypeRehydrationVisitor" = type { %"class.std::map", i32, ptr, ptr, ptr }
%"class.std::map" = type { %"class.std::_Rb_tree" }
%"class.std::_Rb_tree" = type { %"struct.std::_Rb_tree<void *, std::pair<void *const, int>, std::_Select1st<std::pair<void *const, int>>, std::less<void *>>::_Rb_tree_impl" }
%"struct.std::_Rb_tree<void *, std::pair<void *const, int>, std::_Select1st<std::pair<void *const, int>>, std::less<void *>>::_Rb_tree_impl" = type { [8 x i8], %"struct.std::_Rb_tree_header" }
%"struct.std::_Rb_tree_header" = type { %"struct.std::_Rb_tree_node_base", i64 }
%"struct.std::_Rb_tree_node_base" = type { i32, ptr, ptr, ptr }
%"struct.Luau::TypePackVar" = type { %"class.Luau::Variant", i8, ptr }
%"class.Luau::Variant" = type { i32, [4 x i8], [64 x i8] }

; Function Attrs: mustprogress uwtable
define linkonce_odr dso_local noundef ptr @_ZN4Luau5visitIRNS_26TypePackRehydrationVisitorEJNS_9Unifiable5BoundIPKNS_11TypePackVarEEENS3_5ErrorIS7_EENS_12FreeTypePackENS_15GenericTypePackENS_8TypePackENS_16VariadicTypePackENS_15BlockedTypePackENS_28TypeFunctionInstanceTypePackEEEEDaOT_RKNS_7VariantIJDpT0_EEE(ptr noundef nonnull align 8 dereferenceable(24) %0, ptr noundef nonnull align 8 dereferenceable(72) %1) #2 comdat {
  %3 = alloca ptr, align 8
  %4 = alloca ptr, align 8
  %5 = alloca ptr, align 8
  store ptr %0, ptr %3, align 8, !tbaa !29
  store ptr %1, ptr %4, align 8, !tbaa !37
  call void @llvm.lifetime.start.p0(i64 8, ptr %5) #19
  %6 = load ptr, ptr %4, align 8, !tbaa !37
  %7 = getelementptr inbounds nuw %"class.Luau::Variant", ptr %6, i32 0, i32 0
  %8 = load i32, ptr %7, align 8, !tbaa !39
  %9 = sext i32 %8 to i64
  %10 = getelementptr inbounds [8 x ptr], ptr @_ZZN4Luau5visitIRNS_26TypePackRehydrationVisitorEJNS_9Unifiable5BoundIPKNS_11TypePackVarEEENS3_5ErrorIS7_EENS_12FreeTypePackENS_15GenericTypePackENS_8TypePackENS_16VariadicTypePackENS_15BlockedTypePackENS_28TypeFunctionInstanceTypePackEEEEDaOT_RKNS_7VariantIJDpT0_EEEE10tableVisit_0, i64 0, i64 %9
  %11 = load ptr, ptr %10, align 8, !tbaa !41
  %12 = load ptr, ptr %3, align 8, !tbaa !29
  %13 = load ptr, ptr %4, align 8, !tbaa !37
  %14 = getelementptr inbounds nuw %"class.Luau::Variant", ptr %13, i32 0, i32 2
  call void %11(ptr noundef nonnull align 8 dereferenceable(24) %12, ptr noundef nonnull align 8 dereferenceable(8) %5, ptr noundef %14)
  %15 = load ptr, ptr %5, align 8, !tbaa !42
  call void @llvm.lifetime.end.p0(i64 8, ptr %5) #19
  ret ptr %15
}

; Function Attrs: mustprogress nounwind uwtable
define linkonce_odr dso_local void @_ZN4Luau26TypePackRehydrationVisitorC2EPNS_9AllocatorEPSt13unordered_mapIPKvPcSt4hashIS5_ESt8equal_toIS5_ESaISt4pairIKS5_S6_EEEPNS_22TypeRehydrationVisitorE(ptr noundef nonnull align 8 dereferenceable(24) %0, ptr noundef %1, ptr noundef %2, ptr noundef %3) unnamed_addr #3 comdat align 2 {
  %5 = alloca ptr, align 8
  %6 = alloca ptr, align 8
  %7 = alloca ptr, align 8
  %8 = alloca ptr, align 8
  store ptr %0, ptr %5, align 8, !tbaa !29
  store ptr %1, ptr %6, align 8, !tbaa !31
  store ptr %2, ptr %7, align 8, !tbaa !32
  store ptr %3, ptr %8, align 8, !tbaa !8
  %9 = load ptr, ptr %5, align 8
  %10 = getelementptr inbounds nuw %"class.Luau::TypePackRehydrationVisitor", ptr %9, i32 0, i32 0
  %11 = load ptr, ptr %6, align 8, !tbaa !31
  store ptr %11, ptr %10, align 8, !tbaa !33
  %12 = getelementptr inbounds nuw %"class.Luau::TypePackRehydrationVisitor", ptr %9, i32 0, i32 1
  %13 = load ptr, ptr %7, align 8, !tbaa !32
  store ptr %13, ptr %12, align 8, !tbaa !35
  %14 = getelementptr inbounds nuw %"class.Luau::TypePackRehydrationVisitor", ptr %9, i32 0, i32 2
  %15 = load ptr, ptr %8, align 8, !tbaa !8
  store ptr %15, ptr %14, align 8, !tbaa !36
  ret void
}

; Function Attrs: mustprogress uwtable
define dso_local noundef ptr @_ZN4Luau22TypeRehydrationVisitor9rehydrateEPKNS_11TypePackVarE(ptr noundef nonnull align 8 dereferenceable(80) %0, ptr noundef %1) #2 align 2 {
  %3 = alloca ptr, align 8
  %4 = alloca ptr, align 8
  %5 = alloca %"class.Luau::TypePackRehydrationVisitor", align 8
  store ptr %0, ptr %3, align 8, !tbaa !8
  store ptr %1, ptr %4, align 8, !tbaa !11
  %6 = load ptr, ptr %3, align 8
  call void @llvm.lifetime.start.p0(i64 24, ptr %5) #19
  %7 = getelementptr inbounds nuw %"class.Luau::TypeRehydrationVisitor", ptr %6, i32 0, i32 2
  %8 = load ptr, ptr %7, align 8, !tbaa !13
  %9 = getelementptr inbounds nuw %"class.Luau::TypeRehydrationVisitor", ptr %6, i32 0, i32 3
  %10 = load ptr, ptr %9, align 8, !tbaa !28
  call void @_ZN4Luau26TypePackRehydrationVisitorC2EPNS_9AllocatorEPSt13unordered_mapIPKvPcSt4hashIS5_ESt8equal_toIS5_ESaISt4pairIKS5_S6_EEEPNS_22TypeRehydrationVisitorE(ptr noundef nonnull align 8 dereferenceable(24) %5, ptr noundef %8, ptr noundef %10, ptr noundef %6)
  %11 = load ptr, ptr %4, align 8, !tbaa !11
  %12 = getelementptr inbounds nuw %"struct.Luau::TypePackVar", ptr %11, i32 0, i32 0
  %13 = call noundef ptr @_ZN4Luau5visitIRNS_26TypePackRehydrationVisitorEJNS_9Unifiable5BoundIPKNS_11TypePackVarEEENS3_5ErrorIS7_EENS_12FreeTypePackENS_15GenericTypePackENS_8TypePackENS_16VariadicTypePackENS_15BlockedTypePackENS_28TypeFunctionInstanceTypePackEEEEDaOT_RKNS_7VariantIJDpT0_EEE(ptr noundef nonnull align 8 dereferenceable(24) %5, ptr noundef nonnull align 8 dereferenceable(72) %12)
  call void @llvm.lifetime.end.p0(i64 24, ptr %5) #19
  ret ptr %13
}