; Function Attrs: mustprogress uwtable
define dso_local noundef ptr @_ZN4Luau22TypeRehydrationVisitor9rehydrateEPKNS_11TypePackVarE(ptr noundef nonnull align 8 dereferenceable(80) %0, ptr noundef %1) local_unnamed_addr #2 align 2 {
  %3 = alloca ptr, align 8
  %4 = alloca %"class.Luau::TypePackRehydrationVisitor", align 8
  call void @llvm.lifetime.start.p0(i64 24, ptr nonnull %4) #21
  %5 = getelementptr inbounds nuw i8, ptr %0, i64 56
  %6 = load ptr, ptr %5, align 8, !tbaa !8
  %7 = getelementptr inbounds nuw i8, ptr %0, i64 64
  %8 = load ptr, ptr %7, align 8, !tbaa !24
  store ptr %6, ptr %4, align 8, !tbaa !25
  %9 = getelementptr inbounds nuw i8, ptr %4, i64 8
  store ptr %8, ptr %9, align 8, !tbaa !28
  %10 = getelementptr inbounds nuw i8, ptr %4, i64 16
  store ptr %0, ptr %10, align 8, !tbaa !29
  call void @llvm.lifetime.start.p0(i64 8, ptr nonnull %3) #21
  %11 = load i32, ptr %1, align 8, !tbaa !30
  %12 = sext i32 %11 to i64
  %13 = getelementptr inbounds [8 x ptr], ptr @_ZZN4Luau5visitIRNS_26TypePackRehydrationVisitorEJNS_9Unifiable5BoundIPKNS_11TypePackVarEEENS3_5ErrorIS7_EENS_12FreeTypePackENS_15GenericTypePackENS_8TypePackENS_16VariadicTypePackENS_15BlockedTypePackENS_28TypeFunctionInstanceTypePackEEEEDaOT_RKNS_7VariantIJDpT0_EEEE10tableVisit_0, i64 0, i64 %12
  %14 = load ptr, ptr %13, align 8, !tbaa !32
  %15 = getelementptr inbounds nuw i8, ptr %1, i64 8
  call void %14(ptr noundef nonnull align 8 dereferenceable(24) %4, ptr noundef nonnull align 8 dereferenceable(8) %3, ptr noundef nonnull %15)
  %16 = load ptr, ptr %3, align 8, !tbaa !33
  call void @llvm.lifetime.end.p0(i64 8, ptr nonnull %3) #21
  call void @llvm.lifetime.end.p0(i64 24, ptr nonnull %4) #21
  ret ptr %16
}